; Function Attrs: mustprogress nofree norecurse nosync nounwind willreturn memory(none) uwtable
define hidden noundef range(i32 -1, 256) i32 @_ZN2OT4cff132lookup_standard_encoding_for_sidEj(i32 noundef %0) local_unnamed_addr #0 align 2 {
  %2 = icmp ult i32 %0, 256
  br i1 %2, label %3, label %8

3:                                                ; preds = %1
  %4 = zext nneg i32 %0 to i64
  %5 = getelementptr inbounds nuw [256 x i8], ptr @_ZL24standard_encoding_to_sid, i64 0, i64 %4
  %6 = load i8, ptr %5, align 1, !tbaa !4
  %7 = zext i8 %6 to i32
  br label %8

8:                                                ; preds = %1, %3
  %.0 = phi i32 [ %7, %3 ], [ -1, %1 ]
  ret i32 %.0
}